target datalayout = "e-m:e-p270:32:32-p271:32:32-p272:64:64-i64:64-i128:128-f80:128-n8:16:32:64-S128"
target triple = "x86_64-pc-linux-gnu"

%struct.git_hash_algo = type { ptr, i32, i64, i64, i64, ptr, ptr, ptr, ptr, ptr, ptr, ptr, ptr, ptr }
%struct.tree_desc = type { ptr, ptr, %struct.name_entry, i32, i32 }
%struct.name_entry = type { %struct.object_id, ptr, i32, i32 }
%struct.object_id = type { [32 x i8], i32 }
%struct.repository = type { ptr, ptr, ptr, ptr, ptr, %struct.strmap, %struct.strmap, %struct.repo_path_cache, ptr, ptr, ptr, ptr, %struct.repo_settings, ptr, ptr, ptr, ptr, ptr, ptr, i32, i32, i32, ptr, ptr, i32, i32, i8 }
%struct.strmap = type { %struct.hashmap, ptr, i8 }
%struct.hashmap = type { ptr, ptr, ptr, i32, i32, i32, i32, i8 }
%struct.repo_path_cache = type { ptr, ptr, ptr, ptr, ptr, ptr, ptr }
%struct.repo_settings = type { i32, i32, i32, i32, i32, i32, i32, i32, i32, i32, i32, i32, ptr, i32, i32, i32, i32, i32, i32, i32, i64, i64, i64 }

@.str.6 = private unnamed_addr constant [20 x i8] c"cannot read tree %s\00", align 1
@.str.7 = private unnamed_addr constant [34 x i8] c"entry %s in tree %s is not a tree\00", align 1
@.str.8 = private unnamed_addr constant [32 x i8] c"entry %.*s not found in tree %s\00", align 1
@hash_algos = external constant [3 x %struct.git_hash_algo], align 16

; Function Attrs: inlinehint nounwind uwtable
define internal i32 @hash_algo_by_ptr(ptr noundef %0) #3 {
  %2 = alloca i32, align 4
  %3 = alloca ptr, align 8
  %4 = alloca i64, align 8
  %5 = alloca ptr, align 8
  %6 = alloca i32, align 4
  store ptr %0, ptr %3, align 8, !tbaa !62
  call void @llvm.lifetime.start.p0(i64 8, ptr %4) #9
  store i64 0, ptr %4, align 8, !tbaa !32
  br label %7

7:                                                ; preds = %23, %1
  %8 = load i64, ptr %4, align 8, !tbaa !32
  %9 = icmp ult i64 %8, 3
  br i1 %9, label %10, label %26

10:                                               ; preds = %7
  call void @llvm.lifetime.start.p0(i64 8, ptr %5) #9
  %11 = load i64, ptr %4, align 8, !tbaa !32
  %12 = getelementptr inbounds nuw [3 x %struct.git_hash_algo], ptr @hash_algos, i64 0, i64 %11
  store ptr %12, ptr %5, align 8, !tbaa !62
  %13 = load ptr, ptr %3, align 8, !tbaa !62
  %14 = load ptr, ptr %5, align 8, !tbaa !62
  %15 = icmp eq ptr %13, %14
  br i1 %15, label %16, label %19

16:                                               ; preds = %10
  %17 = load i64, ptr %4, align 8, !tbaa !32
  %18 = trunc i64 %17 to i32
  store i32 %18, ptr %2, align 4
  store i32 1, ptr %6, align 4
  br label %20

19:                                               ; preds = %10
  store i32 0, ptr %6, align 4
  br label %20

20:                                               ; preds = %19, %16
  call void @llvm.lifetime.end.p0(i64 8, ptr %5) #9
  %21 = load i32, ptr %6, align 4
  switch i32 %21, label %27 [
    i32 0, label %22
  ]

22:                                               ; preds = %20
  br label %23

23:                                               ; preds = %22
  %24 = load i64, ptr %4, align 8, !tbaa !32
  %25 = add i64 %24, 1
  store i64 %25, ptr %4, align 8, !tbaa !32
  br label %7, !llvm.loop !65

26:                                               ; preds = %7
  store i32 0, ptr %2, align 4
  store i32 1, ptr %6, align 4
  br label %27

27:                                               ; preds = %26, %20
  call void @llvm.lifetime.end.p0(i64 8, ptr %4) #9
  %28 = load i32, ptr %2, align 4
  ret i32 %28
}

; Function Attrs: inlinehint nounwind uwtable
define internal i32 @write_object_file(ptr noundef %0, i64 noundef %1, i32 noundef %2, ptr noundef %3) #3 {
  %5 = alloca ptr, align 8
  %6 = alloca i64, align 8
  %7 = alloca i32, align 4
  %8 = alloca ptr, align 8
  store ptr %0, ptr %5, align 8, !tbaa !16
  store i64 %1, ptr %6, align 8, !tbaa !32
  store i32 %2, ptr %7, align 4, !tbaa !11
  store ptr %3, ptr %8, align 8, !tbaa !9
  %9 = load ptr, ptr %5, align 8, !tbaa !16
  %10 = load i64, ptr %6, align 8, !tbaa !32
  %11 = load i32, ptr %7, align 4, !tbaa !11
  %12 = load ptr, ptr %8, align 8, !tbaa !9
  %13 = call i32 @write_object_file_flags(ptr noundef %9, i64 noundef %10, i32 noundef %11, ptr noundef %12, ptr noundef null, i32 noundef 0)
  ret i32 %13
}

; Function Attrs: inlinehint nounwind uwtable
define internal void @hashcpy(ptr noundef %0, ptr noundef %1, ptr noundef %2) #3 {
  %4 = alloca ptr, align 8
  %5 = alloca ptr, align 8
  %6 = alloca ptr, align 8
  store ptr %0, ptr %4, align 8, !tbaa !13
  store ptr %1, ptr %5, align 8, !tbaa !13
  store ptr %2, ptr %6, align 8, !tbaa !62
  %7 = load ptr, ptr %4, align 8, !tbaa !13
  %8 = load ptr, ptr %5, align 8, !tbaa !13
  %9 = load ptr, ptr %6, align 8, !tbaa !62
  %10 = getelementptr inbounds nuw %struct.git_hash_algo, ptr %9, i32 0, i32 2
  %11 = load i64, ptr %10, align 8, !tbaa !63
  call void @llvm.memcpy.p0.p0.i64(ptr align 1 %7, ptr align 1 %8, i64 %11, i1 false)
  ret void
}

; Function Attrs: inlinehint nounwind uwtable
define internal void @oidread(ptr noundef %0, ptr noundef %1, ptr noundef %2) #3 {
  %4 = alloca ptr, align 8
  %5 = alloca ptr, align 8
  %6 = alloca ptr, align 8
  store ptr %0, ptr %4, align 8, !tbaa !9
  store ptr %1, ptr %5, align 8, !tbaa !13
  store ptr %2, ptr %6, align 8, !tbaa !62
  %7 = load ptr, ptr %4, align 8, !tbaa !9
  %8 = getelementptr inbounds nuw %struct.object_id, ptr %7, i32 0, i32 0
  %9 = getelementptr inbounds [32 x i8], ptr %8, i64 0, i64 0
  %10 = load ptr, ptr %5, align 8, !tbaa !13
  %11 = load ptr, ptr %6, align 8, !tbaa !62
  %12 = getelementptr inbounds nuw %struct.git_hash_algo, ptr %11, i32 0, i32 2
  %13 = load i64, ptr %12, align 8, !tbaa !63
  call void @llvm.memcpy.p0.p0.i64(ptr align 4 %9, ptr align 1 %10, i64 %13, i1 false)
  %14 = load ptr, ptr %6, align 8, !tbaa !62
  %15 = getelementptr inbounds nuw %struct.git_hash_algo, ptr %14, i32 0, i32 2
  %16 = load i64, ptr %15, align 8, !tbaa !63
  %17 = icmp ult i64 %16, 32
  br i1 %17, label %18, label %30

18:                                               ; preds = %3
  %19 = load ptr, ptr %4, align 8, !tbaa !9
  %20 = getelementptr inbounds nuw %struct.object_id, ptr %19, i32 0, i32 0
  %21 = getelementptr inbounds [32 x i8], ptr %20, i64 0, i64 0
  %22 = load ptr, ptr %6, align 8, !tbaa !62
  %23 = getelementptr inbounds nuw %struct.git_hash_algo, ptr %22, i32 0, i32 2
  %24 = load i64, ptr %23, align 8, !tbaa !63
  %25 = getelementptr inbounds nuw i8, ptr %21, i64 %24
  %26 = load ptr, ptr %6, align 8, !tbaa !62
  %27 = getelementptr inbounds nuw %struct.git_hash_algo, ptr %26, i32 0, i32 2
  %28 = load i64, ptr %27, align 8, !tbaa !63
  %29 = sub i64 32, %28
  call void @llvm.memset.p0.i64(ptr align 1 %25, i8 0, i64 %29, i1 false)
  br label %30

30:                                               ; preds = %18, %3
  %31 = load ptr, ptr %6, align 8, !tbaa !62
  %32 = call i32 @hash_algo_by_ptr(ptr noundef %31)
  %33 = load ptr, ptr %4, align 8, !tbaa !9
  %34 = getelementptr inbounds nuw %struct.object_id, ptr %33, i32 0, i32 1
  store i32 %32, ptr %34, align 4, !tbaa !31
  ret void
}

; Function Attrs: inlinehint nounwind uwtable
define internal ptr @tree_entry_extract(ptr noundef %0, ptr noundef %1, ptr noundef %2) #3 {
  %4 = alloca ptr, align 8
  %5 = alloca ptr, align 8
  %6 = alloca ptr, align 8
  store ptr %0, ptr %4, align 8, !tbaa !53
  store ptr %1, ptr %5, align 8, !tbaa !25
  store ptr %2, ptr %6, align 8, !tbaa !60
  %7 = load ptr, ptr %4, align 8, !tbaa !53
  %8 = getelementptr inbounds nuw %struct.tree_desc, ptr %7, i32 0, i32 2
  %9 = getelementptr inbounds nuw %struct.name_entry, ptr %8, i32 0, i32 1
  %10 = load ptr, ptr %9, align 8, !tbaa !34
  %11 = load ptr, ptr %5, align 8, !tbaa !25
  store ptr %10, ptr %11, align 8, !tbaa !13
  %12 = load ptr, ptr %4, align 8, !tbaa !53
  %13 = getelementptr inbounds nuw %struct.tree_desc, ptr %12, i32 0, i32 2
  %14 = getelementptr inbounds nuw %struct.name_entry, ptr %13, i32 0, i32 3
  %15 = load i32, ptr %14, align 4, !tbaa !22
  %16 = trunc i32 %15 to i16
  %17 = load ptr, ptr %6, align 8, !tbaa !60
  store i16 %16, ptr %17, align 2, !tbaa !27
  %18 = load ptr, ptr %4, align 8, !tbaa !53
  %19 = getelementptr inbounds nuw %struct.tree_desc, ptr %18, i32 0, i32 2
  %20 = getelementptr inbounds nuw %struct.name_entry, ptr %19, i32 0, i32 0
  ret ptr %20
}

; Function Attrs: nounwind uwtable
define internal i32 @splice_tree(ptr noundef %0, ptr noundef %1, ptr noundef %2, ptr noundef %3, ptr noundef %4) #0 {
  %6 = alloca i32, align 4
  %7 = alloca ptr, align 8
  %8 = alloca ptr, align 8
  %9 = alloca ptr, align 8
  %10 = alloca ptr, align 8
  %11 = alloca ptr, align 8
  %12 = alloca ptr, align 8
  %13 = alloca i32, align 4
  %14 = alloca ptr, align 8
  %15 = alloca i64, align 8
  %16 = alloca %struct.tree_desc, align 8
  %17 = alloca ptr, align 8
  %18 = alloca ptr, align 8
  %19 = alloca %struct.object_id, align 4
  %20 = alloca i32, align 4
  %21 = alloca i32, align 4
  %22 = alloca ptr, align 8
  %23 = alloca i16, align 2
  %24 = alloca i32, align 4
  %25 = alloca %struct.object_id, align 4
  store ptr %0, ptr %7, align 8, !tbaa !4
  store ptr %1, ptr %8, align 8, !tbaa !9
  store ptr %2, ptr %9, align 8, !tbaa !13
  store ptr %3, ptr %10, align 8, !tbaa !9
  store ptr %4, ptr %11, align 8, !tbaa !9
  call void @llvm.lifetime.start.p0(i64 8, ptr %12) #9
  call void @llvm.lifetime.start.p0(i64 4, ptr %13) #9
  call void @llvm.lifetime.start.p0(i64 8, ptr %14) #9
  call void @llvm.lifetime.start.p0(i64 8, ptr %15) #9
  call void @llvm.lifetime.start.p0(i64 80, ptr %16) #9
  call void @llvm.lifetime.start.p0(i64 8, ptr %17) #9
  call void @llvm.lifetime.start.p0(i64 8, ptr %18) #9
  call void @llvm.lifetime.start.p0(i64 36, ptr %19) #9
  call void @llvm.lifetime.start.p0(i64 4, ptr %20) #9
  call void @llvm.lifetime.start.p0(i64 4, ptr %21) #9
  %26 = load ptr, ptr %9, align 8, !tbaa !13
  %27 = call ptr @strchrnul(ptr noundef %26, i32 noundef 47) #11
  store ptr %27, ptr %12, align 8, !tbaa !13
  %28 = load ptr, ptr %12, align 8, !tbaa !13
  %29 = load ptr, ptr %9, align 8, !tbaa !13
  %30 = ptrtoint ptr %28 to i64
  %31 = ptrtoint ptr %29 to i64
  %32 = sub i64 %30, %31
  %33 = trunc i64 %32 to i32
  store i32 %33, ptr %13, align 4, !tbaa !11
  %34 = load ptr, ptr %12, align 8, !tbaa !13
  %35 = load i8, ptr %34, align 1, !tbaa !15
  %36 = icmp ne i8 %35, 0
  br i1 %36, label %37, label %40

37:                                               ; preds = %5
  %38 = load ptr, ptr %12, align 8, !tbaa !13
  %39 = getelementptr inbounds nuw i8, ptr %38, i32 1
  store ptr %39, ptr %12, align 8, !tbaa !13
  br label %40

40:                                               ; preds = %37, %5
  %41 = load ptr, ptr %7, align 8, !tbaa !4
  %42 = load ptr, ptr %8, align 8, !tbaa !9
  %43 = call ptr @repo_read_object_file(ptr noundef %41, ptr noundef %42, ptr noundef %20, ptr noundef %15)
  store ptr %43, ptr %14, align 8, !tbaa !13
  %44 = load ptr, ptr %14, align 8, !tbaa !13
  %45 = icmp ne ptr %44, null
  br i1 %45, label %49, label %46

46:                                               ; preds = %40
  %47 = load ptr, ptr %8, align 8, !tbaa !9
  %48 = call ptr @oid_to_hex(ptr noundef %47)
  call void (ptr, ...) @die(ptr noundef @.str.6, ptr noundef %48) #10
  unreachable

49:                                               ; preds = %40
  %50 = load ptr, ptr %8, align 8, !tbaa !9
  %51 = load ptr, ptr %14, align 8, !tbaa !13
  %52 = load i64, ptr %15, align 8, !tbaa !32
  call void @init_tree_desc(ptr noundef %16, ptr noundef %50, ptr noundef %51, i64 noundef %52)
  store ptr null, ptr %17, align 8, !tbaa !13
  br label %53

53:                                               ; preds = %93, %49
  %54 = getelementptr inbounds nuw %struct.tree_desc, ptr %16, i32 0, i32 3
  %55 = load i32, ptr %54, align 8, !tbaa !17
  %56 = icmp ne i32 %55, 0
  br i1 %56, label %57, label %94

57:                                               ; preds = %53
  call void @llvm.lifetime.start.p0(i64 8, ptr %22) #9
  call void @llvm.lifetime.start.p0(i64 2, ptr %23) #9
  %58 = call ptr @tree_entry_extract(ptr noundef %16, ptr noundef %22, ptr noundef %23)
  %59 = load ptr, ptr %22, align 8, !tbaa !13
  %60 = call i64 @strlen(ptr noundef %59) #11
  %61 = load i32, ptr %13, align 4, !tbaa !11
  %62 = sext i32 %61 to i64
  %63 = icmp eq i64 %60, %62
  br i1 %63, label %64, label %90

64:                                               ; preds = %57
  %65 = load ptr, ptr %22, align 8, !tbaa !13
  %66 = load ptr, ptr %9, align 8, !tbaa !13
  %67 = load i32, ptr %13, align 4, !tbaa !11
  %68 = sext i32 %67 to i64
  %69 = call i32 @memcmp(ptr noundef %65, ptr noundef %66, i64 noundef %68) #11
  %70 = icmp ne i32 %69, 0
  br i1 %70, label %90, label %71

71:                                               ; preds = %64
  %72 = load i16, ptr %23, align 2, !tbaa !27
  %73 = zext i16 %72 to i32
  %74 = and i32 %73, 61440
  %75 = icmp eq i32 %74, 16384
  br i1 %75, label %80, label %76

76:                                               ; preds = %71
  %77 = load ptr, ptr %22, align 8, !tbaa !13
  %78 = load ptr, ptr %8, align 8, !tbaa !9
  %79 = call ptr @oid_to_hex(ptr noundef %78)
  call void (ptr, ...) @die(ptr noundef @.str.7, ptr noundef %77, ptr noundef %79) #10
  unreachable

80:                                               ; preds = %71
  %81 = getelementptr inbounds nuw %struct.tree_desc, ptr %16, i32 0, i32 2
  %82 = getelementptr inbounds nuw %struct.name_entry, ptr %81, i32 0, i32 1
  %83 = load ptr, ptr %82, align 8, !tbaa !34
  %84 = getelementptr inbounds nuw %struct.tree_desc, ptr %16, i32 0, i32 2
  %85 = getelementptr inbounds nuw %struct.name_entry, ptr %84, i32 0, i32 1
  %86 = load ptr, ptr %85, align 8, !tbaa !34
  %87 = call i64 @strlen(ptr noundef %86) #11
  %88 = getelementptr inbounds nuw i8, ptr %83, i64 %87
  %89 = getelementptr inbounds i8, ptr %88, i64 1
  store ptr %89, ptr %17, align 8, !tbaa !13
  store i32 3, ptr %24, align 4
  br label %91

90:                                               ; preds = %64, %57
  call void @update_tree_entry(ptr noundef %16)
  store i32 0, ptr %24, align 4
  br label %91

91:                                               ; preds = %90, %80
  call void @llvm.lifetime.end.p0(i64 2, ptr %23) #9
  call void @llvm.lifetime.end.p0(i64 8, ptr %22) #9
  %92 = load i32, ptr %24, align 4
  switch i32 %92, label %141 [
    i32 0, label %93
    i32 3, label %94
  ]

93:                                               ; preds = %91
  br label %53, !llvm.loop !35

94:                                               ; preds = %91, %53
  %95 = load ptr, ptr %17, align 8, !tbaa !13
  %96 = icmp ne ptr %95, null
  br i1 %96, label %102, label %97

97:                                               ; preds = %94
  %98 = load i32, ptr %13, align 4, !tbaa !11
  %99 = load ptr, ptr %9, align 8, !tbaa !13
  %100 = load ptr, ptr %8, align 8, !tbaa !9
  %101 = call ptr @oid_to_hex(ptr noundef %100)
  call void (ptr, ...) @die(ptr noundef @.str.8, i32 noundef %98, ptr noundef %99, ptr noundef %101) #10
  unreachable

102:                                              ; preds = %94
  %103 = load ptr, ptr %12, align 8, !tbaa !13
  %104 = load i8, ptr %103, align 1, !tbaa !15
  %105 = icmp ne i8 %104, 0
  br i1 %105, label %106, label %123

106:                                              ; preds = %102
  call void @llvm.lifetime.start.p0(i64 36, ptr %25) #9
  %107 = load ptr, ptr %17, align 8, !tbaa !13
  %108 = load ptr, ptr %7, align 8, !tbaa !4
  %109 = getelementptr inbounds nuw %struct.repository, ptr %108, i32 0, i32 17
  %110 = load ptr, ptr %109, align 8, !tbaa !36
  call void @oidread(ptr noundef %25, ptr noundef %107, ptr noundef %110)
  %111 = load ptr, ptr %7, align 8, !tbaa !4
  %112 = load ptr, ptr %12, align 8, !tbaa !13
  %113 = load ptr, ptr %10, align 8, !tbaa !9
  %114 = call i32 @splice_tree(ptr noundef %111, ptr noundef %25, ptr noundef %112, ptr noundef %113, ptr noundef %19)
  store i32 %114, ptr %21, align 4, !tbaa !11
  %115 = load i32, ptr %21, align 4, !tbaa !11
  %116 = icmp ne i32 %115, 0
  br i1 %116, label %117, label %119

117:                                              ; preds = %106
  %118 = load i32, ptr %21, align 4, !tbaa !11
  store i32 %118, ptr %6, align 4
  store i32 1, ptr %24, align 4
  br label %120

119:                                              ; preds = %106
  store ptr %19, ptr %18, align 8, !tbaa !9
  store i32 0, ptr %24, align 4
  br label %120

120:                                              ; preds = %119, %117
  call void @llvm.lifetime.end.p0(i64 36, ptr %25) #9
  %121 = load i32, ptr %24, align 4
  switch i32 %121, label %139 [
    i32 0, label %122
  ]

122:                                              ; preds = %120
  br label %125

123:                                              ; preds = %102
  %124 = load ptr, ptr %10, align 8, !tbaa !9
  store ptr %124, ptr %18, align 8, !tbaa !9
  br label %125

125:                                              ; preds = %123, %122
  %126 = load ptr, ptr %17, align 8, !tbaa !13
  %127 = load ptr, ptr %18, align 8, !tbaa !9
  %128 = getelementptr inbounds nuw %struct.object_id, ptr %127, i32 0, i32 0
  %129 = getelementptr inbounds [32 x i8], ptr %128, i64 0, i64 0
  %130 = load ptr, ptr %7, align 8, !tbaa !4
  %131 = getelementptr inbounds nuw %struct.repository, ptr %130, i32 0, i32 17
  %132 = load ptr, ptr %131, align 8, !tbaa !36
  call void @hashcpy(ptr noundef %126, ptr noundef %129, ptr noundef %132)
  %133 = load ptr, ptr %14, align 8, !tbaa !13
  %134 = load i64, ptr %15, align 8, !tbaa !32
  %135 = load ptr, ptr %11, align 8, !tbaa !9
  %136 = call i32 @write_object_file(ptr noundef %133, i64 noundef %134, i32 noundef 2, ptr noundef %135)
  store i32 %136, ptr %21, align 4, !tbaa !11
  %137 = load ptr, ptr %14, align 8, !tbaa !13
  call void @free(ptr noundef %137) #9
  %138 = load i32, ptr %21, align 4, !tbaa !11
  store i32 %138, ptr %6, align 4
  store i32 1, ptr %24, align 4
  br label %139

139:                                              ; preds = %125, %120
  call void @llvm.lifetime.end.p0(i64 4, ptr %21) #9
  call void @llvm.lifetime.end.p0(i64 4, ptr %20) #9
  call void @llvm.lifetime.end.p0(i64 36, ptr %19) #9
  call void @llvm.lifetime.end.p0(i64 8, ptr %18) #9
  call void @llvm.lifetime.end.p0(i64 8, ptr %17) #9
  call void @llvm.lifetime.end.p0(i64 80, ptr %16) #9
  call void @llvm.lifetime.end.p0(i64 8, ptr %15) #9
  call void @llvm.lifetime.end.p0(i64 8, ptr %14) #9
  call void @llvm.lifetime.end.p0(i64 4, ptr %13) #9
  call void @llvm.lifetime.end.p0(i64 8, ptr %12) #9
  %140 = load i32, ptr %6, align 4
  ret i32 %140

141:                                              ; preds = %91
  unreachable
}