; Function Attrs: nounwind uwtable
define internal fastcc i32 @splice_tree(ptr noundef %0, ptr noundef %1, ptr noundef %2, ptr noundef readonly captures(none) %3, ptr noundef %4) unnamed_addr #0 {
  %6 = alloca i64, align 8
  %7 = alloca %struct.tree_desc, align 8
  %8 = alloca %struct.object_id, align 4
  %9 = alloca i32, align 4
  %10 = alloca %struct.object_id, align 4
  call void @llvm.lifetime.start.p0(i64 8, ptr nonnull %6) #11
  call void @llvm.lifetime.start.p0(i64 80, ptr nonnull %7) #11
  call void @llvm.lifetime.start.p0(i64 36, ptr nonnull %8) #11
  call void @llvm.lifetime.start.p0(i64 4, ptr nonnull %9) #11
  %11 = tail call ptr @strchrnul(ptr noundef %2, i32 noundef 47) #13
  %12 = ptrtoint ptr %11 to i64
  %13 = ptrtoint ptr %2 to i64
  %14 = sub i64 %12, %13
  %15 = load i8, ptr %11, align 1, !tbaa !13
  %.not = icmp ne i8 %15, 0
  %spec.select.idx = zext i1 %.not to i64
  %spec.select = getelementptr inbounds nuw i8, ptr %11, i64 %spec.select.idx
  %16 = call ptr @repo_read_object_file(ptr noundef %0, ptr noundef %1, ptr noundef nonnull %9, ptr noundef nonnull %6) #11
  %.not47 = icmp eq ptr %16, null
  br i1 %.not47, label %17, label %19

17:                                               ; preds = %5
  %18 = call ptr @oid_to_hex(ptr noundef %1) #11
  call void (ptr, ...) @die(ptr noundef nonnull @.str.6, ptr noundef %18) #12
  unreachable

19:                                               ; preds = %5
  %20 = load i64, ptr %6, align 8, !tbaa !14
  call void @init_tree_desc(ptr noundef nonnull %7, ptr noundef %1, ptr noundef nonnull %16, i64 noundef %20) #11
  %21 = getelementptr inbounds nuw i8, ptr %7, i64 72
  %22 = load i32, ptr %21, align 8, !tbaa !16
  %.not4862 = icmp eq i32 %22, 0
  br i1 %.not4862, label %._crit_edge, label %.lr.ph

.lr.ph:                                           ; preds = %19
  %23 = getelementptr inbounds nuw i8, ptr %7, i64 56
  %24 = getelementptr inbounds nuw i8, ptr %7, i64 68
  %sext = shl i64 %14, 32
  %25 = ashr exact i64 %sext, 32
  br label %26

26:                                               ; preds = %.lr.ph, %37
  %27 = load ptr, ptr %23, align 8, !tbaa !24
  %28 = call i64 @strlen(ptr noundef nonnull dereferenceable(1) %27) #13
  %29 = icmp eq i64 %28, %25
  br i1 %29, label %30, label %37

30:                                               ; preds = %26
  %bcmp = call i32 @bcmp(ptr nonnull %27, ptr %2, i64 %25)
  %.not49 = icmp eq i32 %bcmp, 0
  br i1 %.not49, label %31, label %37

31:                                               ; preds = %30
  %32 = load i32, ptr %24, align 4, !tbaa !23
  %33 = and i32 %32, 61440
  %34 = icmp eq i32 %33, 16384
  br i1 %34, label %41, label %35

35:                                               ; preds = %31
  %36 = call ptr @oid_to_hex(ptr noundef %1) #11
  call void (ptr, ...) @die(ptr noundef nonnull @.str.7, ptr noundef nonnull %27, ptr noundef %36) #12
  unreachable

37:                                               ; preds = %26, %30
  call void @update_tree_entry(ptr noundef nonnull %7) #11
  %38 = load i32, ptr %21, align 8, !tbaa !16
  %.not48 = icmp eq i32 %38, 0
  br i1 %.not48, label %._crit_edge, label %26

._crit_edge:                                      ; preds = %37, %19
  %39 = trunc i64 %14 to i32
  %40 = call ptr @oid_to_hex(ptr noundef %1) #11
  call void (ptr, ...) @die(ptr noundef nonnull @.str.8, i32 noundef %39, ptr noundef %2, ptr noundef %40) #12
  unreachable

41:                                               ; preds = %31
  %42 = getelementptr inbounds nuw i8, ptr %27, i64 %25
  %43 = getelementptr inbounds nuw i8, ptr %42, i64 1
  %44 = load i8, ptr %spec.select, align 1, !tbaa !13
  %.not51 = icmp eq i8 %44, 0
  br i1 %.not51, label %61, label %45

45:                                               ; preds = %41
  call void @llvm.lifetime.start.p0(i64 36, ptr nonnull %10) #11
  %46 = getelementptr inbounds nuw i8, ptr %0, i64 400
  %47 = load ptr, ptr %46, align 8, !tbaa !27
  %48 = getelementptr inbounds nuw i8, ptr %47, i64 16
  %49 = load i64, ptr %48, align 8, !tbaa !44
  call void @llvm.memcpy.p0.p0.i64(ptr nonnull align 4 %10, ptr nonnull readonly align 1 %43, i64 %49, i1 false)
  %50 = icmp ult i64 %49, 32
  br i1 %50, label %51, label %.preheader

51:                                               ; preds = %45
  %52 = getelementptr inbounds nuw i8, ptr %10, i64 %49
  %53 = sub nuw nsw i64 32, %49
  call void @llvm.memset.p0.i64(ptr nonnull align 1 %52, i8 0, i64 %53, i1 false)
  br label %.preheader

.preheader:                                       ; preds = %51, %45
  br label %54

54:                                               ; preds = %.preheader, %56
  %.0811.i.i = phi i64 [ %57, %56 ], [ 0, %.preheader ]
  %55 = getelementptr inbounds nuw [3 x %struct.git_hash_algo], ptr @hash_algos, i64 0, i64 %.0811.i.i
  %.not.i.i = icmp eq ptr %47, %55
  br i1 %.not.i.i, label %.split.loop.exit9.i.i, label %56

56:                                               ; preds = %54
  %57 = add nuw nsw i64 %.0811.i.i, 1
  %exitcond.not.i.i = icmp eq i64 %57, 3
  br i1 %exitcond.not.i.i, label %oidread.exit, label %54, !llvm.loop !47

.split.loop.exit9.i.i:                            ; preds = %54
  %58 = trunc nuw nsw i64 %.0811.i.i to i32
  br label %oidread.exit

oidread.exit:                                     ; preds = %56, %.split.loop.exit9.i.i
  %.2.i.i = phi i32 [ %58, %.split.loop.exit9.i.i ], [ 0, %56 ]
  %59 = getelementptr inbounds nuw i8, ptr %10, i64 32
  store i32 %.2.i.i, ptr %59, align 4, !tbaa !11
  %60 = call fastcc i32 @splice_tree(ptr noundef %0, ptr noundef nonnull %10, ptr noundef nonnull %spec.select, ptr noundef %3, ptr noundef nonnull %8)
  %.not52 = icmp eq i32 %60, 0
  call void @llvm.lifetime.end.p0(i64 36, ptr nonnull %10) #11
  br i1 %.not52, label %61, label %67

61:                                               ; preds = %41, %oidread.exit
  %.138.sroa.phi = phi ptr [ %8, %oidread.exit ], [ %3, %41 ]
  %62 = getelementptr inbounds nuw i8, ptr %0, i64 400
  %63 = load ptr, ptr %62, align 8, !tbaa !27
  %64 = getelementptr i8, ptr %63, i64 16
  %.val = load i64, ptr %64, align 8, !tbaa !44
  call void @llvm.memcpy.p0.p0.i64(ptr nonnull align 1 %43, ptr readonly align 1 %.138.sroa.phi, i64 %.val, i1 false)
  %65 = load i64, ptr %6, align 8, !tbaa !14
  %66 = call i32 @write_object_file_flags(ptr noundef nonnull %16, i64 noundef %65, i32 noundef 2, ptr noundef %4, ptr noundef null, i32 noundef 0) #11
  call void @free(ptr noundef %16) #11
  br label %67

67:                                               ; preds = %oidread.exit, %61
  %.142 = phi i32 [ %66, %61 ], [ %60, %oidread.exit ]
  call void @llvm.lifetime.end.p0(i64 4, ptr nonnull %9) #11
  call void @llvm.lifetime.end.p0(i64 36, ptr nonnull %8) #11
  call void @llvm.lifetime.end.p0(i64 80, ptr nonnull %7) #11
  call void @llvm.lifetime.end.p0(i64 8, ptr nonnull %6) #11
  ret i32 %.142
}